target datalayout = "e-m:e-p270:32:32-p271:32:32-p272:64:64-i64:64-i128:128-f80:128-n8:16:32:64-S128"
target triple = "x86_64-pc-linux-gnu"

%struct.OSQPVectorf_ = type { ptr, i64 }

; Function Attrs: nounwind uwtable
define void @OSQPVectorf_ew_prod(ptr noundef %0, ptr noundef %1, ptr noundef %2) #0 {
  %4 = alloca ptr, align 8
  %5 = alloca ptr, align 8
  %6 = alloca ptr, align 8
  %7 = alloca i64, align 8
  %8 = alloca i64, align 8
  %9 = alloca ptr, align 8
  %10 = alloca ptr, align 8
  %11 = alloca ptr, align 8
  store ptr %0, ptr %4, align 8
  store ptr %1, ptr %5, align 8
  store ptr %2, ptr %6, align 8
  %12 = load ptr, ptr %5, align 8
  %13 = getelementptr inbounds %struct.OSQPVectorf_, ptr %12, i32 0, i32 1
  %14 = load i64, ptr %13, align 8
  store i64 %14, ptr %8, align 8
  %15 = load ptr, ptr %5, align 8
  %16 = getelementptr inbounds %struct.OSQPVectorf_, ptr %15, i32 0, i32 0
  %17 = load ptr, ptr %16, align 8
  store ptr %17, ptr %9, align 8
  %18 = load ptr, ptr %6, align 8
  %19 = getelementptr inbounds %struct.OSQPVectorf_, ptr %18, i32 0, i32 0
  %20 = load ptr, ptr %19, align 8
  store ptr %20, ptr %10, align 8
  %21 = load ptr, ptr %4, align 8
  %22 = getelementptr inbounds %struct.OSQPVectorf_, ptr %21, i32 0, i32 0
  %23 = load ptr, ptr %22, align 8
  store ptr %23, ptr %11, align 8
  %24 = load ptr, ptr %4, align 8
  %25 = load ptr, ptr %5, align 8
  %26 = icmp eq ptr %24, %25
  br i1 %26, label %27, label %46

27:                                               ; preds = %3
  store i64 0, ptr %7, align 8
  br label %28

28:                                               ; preds = %42, %27
  %29 = load i64, ptr %7, align 8
  %30 = load i64, ptr %8, align 8
  %31 = icmp slt i64 %29, %30
  br i1 %31, label %32, label %45

32:                                               ; preds = %28
  %33 = load ptr, ptr %10, align 8
  %34 = load i64, ptr %7, align 8
  %35 = getelementptr inbounds double, ptr %33, i64 %34
  %36 = load double, ptr %35, align 8
  %37 = load ptr, ptr %11, align 8
  %38 = load i64, ptr %7, align 8
  %39 = getelementptr inbounds double, ptr %37, i64 %38
  %40 = load double, ptr %39, align 8
  %41 = fmul double %40, %36
  store double %41, ptr %39, align 8
  br label %42

42:                                               ; preds = %32
  %43 = load i64, ptr %7, align 8
  %44 = add nsw i64 %43, 1
  store i64 %44, ptr %7, align 8
  br label %28, !llvm.loop !34

45:                                               ; preds = %28
  br label %68

46:                                               ; preds = %3
  store i64 0, ptr %7, align 8
  br label %47

47:                                               ; preds = %64, %46
  %48 = load i64, ptr %7, align 8
  %49 = load i64, ptr %8, align 8
  %50 = icmp slt i64 %48, %49
  br i1 %50, label %51, label %67

51:                                               ; preds = %47
  %52 = load ptr, ptr %9, align 8
  %53 = load i64, ptr %7, align 8
  %54 = getelementptr inbounds double, ptr %52, i64 %53
  %55 = load double, ptr %54, align 8
  %56 = load ptr, ptr %10, align 8
  %57 = load i64, ptr %7, align 8
  %58 = getelementptr inbounds double, ptr %56, i64 %57
  %59 = load double, ptr %58, align 8
  %60 = fmul double %55, %59
  %61 = load ptr, ptr %11, align 8
  %62 = load i64, ptr %7, align 8
  %63 = getelementptr inbounds double, ptr %61, i64 %62
  store double %60, ptr %63, align 8
  br label %64

64:                                               ; preds = %51
  %65 = load i64, ptr %7, align 8
  %66 = add nsw i64 %65, 1
  store i64 %66, ptr %7, align 8
  br label %47, !llvm.loop !35

67:                                               ; preds = %47
  br label %68

68:                                               ; preds = %67, %45
  ret void
}